target datalayout = "e-m:e-p270:32:32-p271:32:32-p272:64:64-i64:64-i128:128-f80:128-n8:16:32:64-S128"
target triple = "x86_64-pc-linux-gnu"

%struct.SurfaceDataRasInfo = type { %struct.SurfaceDataBounds, ptr, i32, i32, i32, i32, ptr, ptr, ptr, ptr, ptr, ptr, i32, %union.anon.0 }
%struct.SurfaceDataBounds = type { i32, i32, i32, i32 }
%union.anon.0 = type { ptr, [56 x i8] }

@mul8table = external global [256 x [256 x i8]], align 16

; Function Attrs: nounwind uwtable
define hidden void @ByteIndexedBmToIntArgbPreScaleXparOver(ptr noundef %0, ptr noundef %1, i32 noundef %2, i32 noundef %3, i32 noundef %4, i32 noundef %5, i32 noundef %6, i32 noundef %7, i32 noundef %8, ptr noundef %9, ptr noundef %10, ptr noundef %11, ptr noundef %12) #1 {
  %14 = alloca ptr, align 8
  %15 = alloca ptr, align 8
  %16 = alloca i32, align 4
  %17 = alloca i32, align 4
  %18 = alloca i32, align 4
  %19 = alloca i32, align 4
  %20 = alloca i32, align 4
  %21 = alloca i32, align 4
  %22 = alloca i32, align 4
  %23 = alloca ptr, align 8
  %24 = alloca ptr, align 8
  %25 = alloca ptr, align 8
  %26 = alloca ptr, align 8
  %27 = alloca ptr, align 8
  %28 = alloca ptr, align 8
  %29 = alloca ptr, align 8
  %30 = alloca i32, align 4
  %31 = alloca i32, align 4
  %32 = alloca i32, align 4
  %33 = alloca i32, align 4
  %34 = alloca i32, align 4
  %35 = alloca i32, align 4
  %36 = alloca i32, align 4
  %37 = alloca i32, align 4
  %38 = alloca i32, align 4
  %39 = alloca i32, align 4
  store ptr %0, ptr %14, align 8
  store ptr %1, ptr %15, align 8
  store i32 %2, ptr %16, align 4
  store i32 %3, ptr %17, align 4
  store i32 %4, ptr %18, align 4
  store i32 %5, ptr %19, align 4
  store i32 %6, ptr %20, align 4
  store i32 %7, ptr %21, align 4
  store i32 %8, ptr %22, align 4
  store ptr %9, ptr %23, align 8
  store ptr %10, ptr %24, align 8
  store ptr %11, ptr %25, align 8
  store ptr %12, ptr %26, align 8
  %40 = load ptr, ptr %23, align 8
  %41 = getelementptr inbounds %struct.SurfaceDataRasInfo, ptr %40, i32 0, i32 6
  %42 = load ptr, ptr %41, align 8
  store ptr %42, ptr %27, align 8
  br label %43

43:                                               ; preds = %13
  %44 = load ptr, ptr %15, align 8
  store ptr %44, ptr %29, align 8
  %45 = load ptr, ptr %23, align 8
  %46 = getelementptr inbounds %struct.SurfaceDataRasInfo, ptr %45, i32 0, i32 4
  %47 = load i32, ptr %46, align 8
  store i32 %47, ptr %30, align 4
  %48 = load ptr, ptr %24, align 8
  %49 = getelementptr inbounds %struct.SurfaceDataRasInfo, ptr %48, i32 0, i32 4
  %50 = load i32, ptr %49, align 8
  store i32 %50, ptr %31, align 4
  %51 = load i32, ptr %16, align 4
  %52 = mul i32 %51, 4
  %53 = load i32, ptr %31, align 4
  %54 = sub i32 %53, %52
  store i32 %54, ptr %31, align 4
  br label %55

55:                                               ; preds = %170, %43
  %56 = load i32, ptr %16, align 4
  store i32 %56, ptr %32, align 4
  %57 = load i32, ptr %18, align 4
  store i32 %57, ptr %33, align 4
  %58 = load ptr, ptr %14, align 8
  %59 = ptrtoint ptr %58 to i64
  %60 = load i32, ptr %19, align 4
  %61 = load i32, ptr %22, align 4
  %62 = ashr i32 %60, %61
  %63 = sext i32 %62 to i64
  %64 = load i32, ptr %30, align 4
  %65 = sext i32 %64 to i64
  %66 = mul nsw i64 %63, %65
  %67 = add nsw i64 %59, %66
  %68 = inttoptr i64 %67 to ptr
  store ptr %68, ptr %28, align 8
  br label %69

69:                                               ; preds = %156, %55
  %70 = load i32, ptr %33, align 4
  %71 = load i32, ptr %22, align 4
  %72 = ashr i32 %70, %71
  store i32 %72, ptr %34, align 4
  br label %73

73:                                               ; preds = %69
  %74 = load ptr, ptr %27, align 8
  %75 = load ptr, ptr %28, align 8
  %76 = load i32, ptr %34, align 4
  %77 = sext i32 %76 to i64
  %78 = getelementptr inbounds i8, ptr %75, i64 %77
  %79 = load i8, ptr %78, align 1
  %80 = zext i8 %79 to i64
  %81 = getelementptr inbounds i32, ptr %74, i64 %80
  %82 = load i32, ptr %81, align 4
  store i32 %82, ptr %35, align 4
  %83 = load i32, ptr %35, align 4
  %84 = icmp slt i32 %83, 0
  br i1 %84, label %85, label %147

85:                                               ; preds = %73
  br label %86

86:                                               ; preds = %85
  %87 = load i32, ptr %35, align 4
  %88 = ashr i32 %87, 24
  %89 = add nsw i32 %88, 1
  %90 = icmp eq i32 %89, 0
  br i1 %90, label %91, label %95

91:                                               ; preds = %86
  %92 = load i32, ptr %35, align 4
  %93 = load ptr, ptr %29, align 8
  %94 = getelementptr inbounds i32, ptr %93, i64 0
  store i32 %92, ptr %94, align 4
  br label %145

95:                                               ; preds = %86
  br label %96

96:                                               ; preds = %95
  %97 = load i32, ptr %35, align 4
  %98 = and i32 %97, 255
  store i32 %98, ptr %39, align 4
  %99 = load i32, ptr %35, align 4
  %100 = ashr i32 %99, 8
  %101 = and i32 %100, 255
  store i32 %101, ptr %38, align 4
  %102 = load i32, ptr %35, align 4
  %103 = ashr i32 %102, 16
  %104 = and i32 %103, 255
  store i32 %104, ptr %37, align 4
  %105 = load i32, ptr %35, align 4
  %106 = ashr i32 %105, 24
  %107 = and i32 %106, 255
  store i32 %107, ptr %36, align 4
  br label %108

108:                                              ; preds = %96
  %109 = load i32, ptr %36, align 4
  %110 = sext i32 %109 to i64
  %111 = getelementptr inbounds [256 x [256 x i8]], ptr @mul8table, i64 0, i64 %110
  %112 = load i32, ptr %37, align 4
  %113 = sext i32 %112 to i64
  %114 = getelementptr inbounds [256 x i8], ptr %111, i64 0, i64 %113
  %115 = load i8, ptr %114, align 1
  %116 = zext i8 %115 to i32
  store i32 %116, ptr %37, align 4
  %117 = load i32, ptr %36, align 4
  %118 = sext i32 %117 to i64
  %119 = getelementptr inbounds [256 x [256 x i8]], ptr @mul8table, i64 0, i64 %118
  %120 = load i32, ptr %38, align 4
  %121 = sext i32 %120 to i64
  %122 = getelementptr inbounds [256 x i8], ptr %119, i64 0, i64 %121
  %123 = load i8, ptr %122, align 1
  %124 = zext i8 %123 to i32
  store i32 %124, ptr %38, align 4
  %125 = load i32, ptr %36, align 4
  %126 = sext i32 %125 to i64
  %127 = getelementptr inbounds [256 x [256 x i8]], ptr @mul8table, i64 0, i64 %126
  %128 = load i32, ptr %39, align 4
  %129 = sext i32 %128 to i64
  %130 = getelementptr inbounds [256 x i8], ptr %127, i64 0, i64 %129
  %131 = load i8, ptr %130, align 1
  %132 = zext i8 %131 to i32
  store i32 %132, ptr %39, align 4
  %133 = load i32, ptr %36, align 4
  %134 = shl i32 %133, 8
  %135 = load i32, ptr %37, align 4
  %136 = or i32 %134, %135
  %137 = shl i32 %136, 8
  %138 = load i32, ptr %38, align 4
  %139 = or i32 %137, %138
  %140 = shl i32 %139, 8
  %141 = load i32, ptr %39, align 4
  %142 = or i32 %140, %141
  %143 = load ptr, ptr %29, align 8
  %144 = getelementptr inbounds i32, ptr %143, i64 0
  store i32 %142, ptr %144, align 4
  br label %145

145:                                              ; preds = %108, %91
  br label %146

146:                                              ; preds = %145
  br label %147

147:                                              ; preds = %146, %73
  br label %148

148:                                              ; preds = %147
  %149 = load ptr, ptr %29, align 8
  %150 = ptrtoint ptr %149 to i64
  %151 = add nsw i64 %150, 4
  %152 = inttoptr i64 %151 to ptr
  store ptr %152, ptr %29, align 8
  %153 = load i32, ptr %20, align 4
  %154 = load i32, ptr %33, align 4
  %155 = add nsw i32 %154, %153
  store i32 %155, ptr %33, align 4
  br label %156

156:                                              ; preds = %148
  %157 = load i32, ptr %32, align 4
  %158 = add i32 %157, -1
  store i32 %158, ptr %32, align 4
  %159 = icmp ugt i32 %158, 0
  br i1 %159, label %69, label %160, !llvm.loop !33

160:                                              ; preds = %156
  %161 = load ptr, ptr %29, align 8
  %162 = ptrtoint ptr %161 to i64
  %163 = load i32, ptr %31, align 4
  %164 = sext i32 %163 to i64
  %165 = add nsw i64 %162, %164
  %166 = inttoptr i64 %165 to ptr
  store ptr %166, ptr %29, align 8
  %167 = load i32, ptr %21, align 4
  %168 = load i32, ptr %19, align 4
  %169 = add nsw i32 %168, %167
  store i32 %169, ptr %19, align 4
  br label %170

170:                                              ; preds = %160
  %171 = load i32, ptr %17, align 4
  %172 = add i32 %171, -1
  store i32 %172, ptr %17, align 4
  %173 = icmp ugt i32 %172, 0
  br i1 %173, label %55, label %174, !llvm.loop !34

174:                                              ; preds = %170
  br label %175

175:                                              ; preds = %174
  ret void
}