; Function Attrs: nofree norecurse nosync nounwind memory(readwrite, inaccessiblemem: none) uwtable
define hidden void @ByteIndexedBmToIntArgbPreScaleXparOver(ptr noundef %0, ptr noundef %1, i32 noundef %2, i32 noundef %3, i32 noundef %4, i32 noundef %5, i32 noundef %6, i32 noundef %7, i32 noundef %8, ptr nocapture noundef readonly %9, ptr nocapture noundef readonly %10, ptr nocapture readnone %11, ptr nocapture readnone %12) #1 {
  %14 = getelementptr inbounds i8, ptr %9, i64 40
  %15 = load ptr, ptr %14, align 8
  %16 = getelementptr inbounds i8, ptr %9, i64 32
  %17 = load i32, ptr %16, align 8
  %18 = getelementptr inbounds i8, ptr %10, i64 32
  %19 = load i32, ptr %18, align 8
  %20 = shl i32 %2, 2
  %21 = sub i32 %19, %20
  %22 = sext i32 %21 to i64
  %23 = ptrtoint ptr %0 to i64
  %24 = sext i32 %17 to i64
  br label %25

25:                                               ; preds = %74, %13
  %.045 = phi ptr [ %1, %13 ], [ %76, %74 ]
  %.044 = phi i32 [ %5, %13 ], [ %77, %74 ]
  %.0 = phi i32 [ %3, %13 ], [ %78, %74 ]
  %26 = ashr i32 %.044, %8
  %27 = sext i32 %26 to i64
  %28 = mul nsw i64 %27, %24
  %29 = add nsw i64 %28, %23
  %30 = inttoptr i64 %29 to ptr
  br label %31

31:                                               ; preds = %68, %25
  %.047 = phi i32 [ %4, %25 ], [ %72, %68 ]
  %.046 = phi i32 [ %2, %25 ], [ %73, %68 ]
  %.1 = phi ptr [ %.045, %25 ], [ %71, %68 ]
  %32 = ashr i32 %.047, %8
  %33 = sext i32 %32 to i64
  %34 = getelementptr inbounds i8, ptr %30, i64 %33
  %35 = load i8, ptr %34, align 1
  %36 = zext i8 %35 to i64
  %37 = getelementptr inbounds i32, ptr %15, i64 %36
  %38 = load i32, ptr %37, align 4
  %39 = icmp slt i32 %38, 0
  br i1 %39, label %40, label %68

40:                                               ; preds = %31
  %41 = icmp ugt i32 %38, -16777217
  br i1 %41, label %.sink.split, label %42

42:                                               ; preds = %40
  %43 = and i32 %38, 255
  %44 = lshr i32 %38, 8
  %45 = and i32 %44, 255
  %46 = lshr i32 %38, 16
  %47 = and i32 %46, 255
  %48 = lshr i32 %38, 24
  %49 = zext nneg i32 %48 to i64
  %50 = zext nneg i32 %47 to i64
  %51 = getelementptr inbounds [256 x [256 x i8]], ptr @mul8table, i64 0, i64 %49, i64 %50
  %52 = load i8, ptr %51, align 1
  %53 = zext i8 %52 to i32
  %54 = zext nneg i32 %45 to i64
  %55 = getelementptr inbounds [256 x [256 x i8]], ptr @mul8table, i64 0, i64 %49, i64 %54
  %56 = load i8, ptr %55, align 1
  %57 = zext i8 %56 to i32
  %58 = zext nneg i32 %43 to i64
  %59 = getelementptr inbounds [256 x [256 x i8]], ptr @mul8table, i64 0, i64 %49, i64 %58
  %60 = load i8, ptr %59, align 1
  %61 = zext i8 %60 to i32
  %62 = shl nuw nsw i32 %48, 16
  %63 = shl nuw nsw i32 %53, 8
  %64 = or disjoint i32 %63, %62
  %65 = or disjoint i32 %64, %57
  %66 = shl nuw i32 %65, 8
  %67 = or disjoint i32 %66, %61
  br label %.sink.split

.sink.split:                                      ; preds = %40, %42
  %.sink = phi i32 [ %67, %42 ], [ %38, %40 ]
  store i32 %.sink, ptr %.1, align 4
  br label %68

68:                                               ; preds = %.sink.split, %31
  %69 = ptrtoint ptr %.1 to i64
  %70 = add nsw i64 %69, 4
  %71 = inttoptr i64 %70 to ptr
  %72 = add nsw i32 %.047, %6
  %73 = add i32 %.046, -1
  %.not = icmp eq i32 %73, 0
  br i1 %.not, label %74, label %31, !llvm.loop !33

74:                                               ; preds = %68
  %75 = add nsw i64 %70, %22
  %76 = inttoptr i64 %75 to ptr
  %77 = add nsw i32 %.044, %7
  %78 = add i32 %.0, -1
  %.not51 = icmp eq i32 %78, 0
  br i1 %.not51, label %79, label %25, !llvm.loop !34

79:                                               ; preds = %74
  ret void
}